target datalayout = "e-m:e-p270:32:32-p271:32:32-p272:64:64-i64:64-i128:128-f80:128-n8:16:32:64-S128"
target triple = "x86_64-unknown-linux-gnu"

%"struct.ClipperLib::IntPoint" = type { i64, i64 }

; Function Attrs: mustprogress nounwind uwtable
define hidden noundef double @_ZN10ClipperLib20DistanceFromLineSqrdERKNS_8IntPointES2_S2_(ptr noundef nonnull align 8 dereferenceable(16) %pt, ptr noundef nonnull align 8 dereferenceable(16) %ln1, ptr noundef nonnull align 8 dereferenceable(16) %ln2) #1 {
entry:
  %pt.addr = alloca ptr, align 8
  %ln1.addr = alloca ptr, align 8
  %ln2.addr = alloca ptr, align 8
  %A = alloca double, align 8
  %B = alloca double, align 8
  %C = alloca double, align 8
  store ptr %pt, ptr %pt.addr, align 8
  store ptr %ln1, ptr %ln1.addr, align 8
  store ptr %ln2, ptr %ln2.addr, align 8
  %0 = load ptr, ptr %ln1.addr, align 8
  %Y = getelementptr inbounds %"struct.ClipperLib::IntPoint", ptr %0, i32 0, i32 1
  %1 = load i64, ptr %Y, align 8
  %2 = load ptr, ptr %ln2.addr, align 8
  %Y1 = getelementptr inbounds %"struct.ClipperLib::IntPoint", ptr %2, i32 0, i32 1
  %3 = load i64, ptr %Y1, align 8
  %sub = sub nsw i64 %1, %3
  %conv = sitofp i64 %sub to double
  store double %conv, ptr %A, align 8
  %4 = load ptr, ptr %ln2.addr, align 8
  %X = getelementptr inbounds %"struct.ClipperLib::IntPoint", ptr %4, i32 0, i32 0
  %5 = load i64, ptr %X, align 8
  %6 = load ptr, ptr %ln1.addr, align 8
  %X2 = getelementptr inbounds %"struct.ClipperLib::IntPoint", ptr %6, i32 0, i32 0
  %7 = load i64, ptr %X2, align 8
  %sub3 = sub nsw i64 %5, %7
  %conv4 = sitofp i64 %sub3 to double
  store double %conv4, ptr %B, align 8
  %8 = load double, ptr %A, align 8
  %9 = load ptr, ptr %ln1.addr, align 8
  %X5 = getelementptr inbounds %"struct.ClipperLib::IntPoint", ptr %9, i32 0, i32 0
  %10 = load i64, ptr %X5, align 8
  %conv6 = sitofp i64 %10 to double
  %11 = load double, ptr %B, align 8
  %12 = load ptr, ptr %ln1.addr, align 8
  %Y7 = getelementptr inbounds %"struct.ClipperLib::IntPoint", ptr %12, i32 0, i32 1
  %13 = load i64, ptr %Y7, align 8
  %conv8 = sitofp i64 %13 to double
  %mul9 = fmul double %11, %conv8
  %14 = call double @llvm.fmuladd.f64(double %8, double %conv6, double %mul9)
  store double %14, ptr %C, align 8
  %15 = load double, ptr %A, align 8
  %16 = load ptr, ptr %pt.addr, align 8
  %X10 = getelementptr inbounds %"struct.ClipperLib::IntPoint", ptr %16, i32 0, i32 0
  %17 = load i64, ptr %X10, align 8
  %conv11 = sitofp i64 %17 to double
  %18 = load double, ptr %B, align 8
  %19 = load ptr, ptr %pt.addr, align 8
  %Y12 = getelementptr inbounds %"struct.ClipperLib::IntPoint", ptr %19, i32 0, i32 1
  %20 = load i64, ptr %Y12, align 8
  %conv13 = sitofp i64 %20 to double
  %mul14 = fmul double %18, %conv13
  %21 = call double @llvm.fmuladd.f64(double %15, double %conv11, double %mul14)
  %22 = load double, ptr %C, align 8
  %sub15 = fsub double %21, %22
  store double %sub15, ptr %C, align 8
  %23 = load double, ptr %C, align 8
  %24 = load double, ptr %C, align 8
  %mul = fmul double %23, %24
  %25 = load double, ptr %A, align 8
  %26 = load double, ptr %A, align 8
  %27 = load double, ptr %B, align 8
  %28 = load double, ptr %B, align 8
  %mul17 = fmul double %27, %28
  %29 = call double @llvm.fmuladd.f64(double %25, double %26, double %mul17)
  %div = fdiv double %mul, %29
  ret double %div
}