; Function Attrs: mustprogress nofree norecurse nosync nounwind willreturn memory(argmem: read) uwtable
define hidden noundef double @_ZN10ClipperLib20DistanceFromLineSqrdERKNS_8IntPointES2_S2_(ptr nocapture noundef nonnull readonly align 8 dereferenceable(16) %pt, ptr nocapture noundef nonnull readonly align 8 dereferenceable(16) %ln1, ptr nocapture noundef nonnull readonly align 8 dereferenceable(16) %ln2) local_unnamed_addr #3 {
entry:
  %Y = getelementptr inbounds i8, ptr %ln1, i64 8
  %0 = load i64, ptr %Y, align 8
  %Y1 = getelementptr inbounds i8, ptr %ln2, i64 8
  %1 = load i64, ptr %Y1, align 8
  %sub = sub nsw i64 %0, %1
  %conv = sitofp i64 %sub to double
  %2 = load i64, ptr %ln2, align 8
  %3 = load i64, ptr %ln1, align 8
  %sub3 = sub nsw i64 %2, %3
  %conv4 = sitofp i64 %sub3 to double
  %conv6 = sitofp i64 %3 to double
  %conv8 = sitofp i64 %0 to double
  %mul9 = fmul double %conv8, %conv4
  %4 = tail call double @llvm.fmuladd.f64(double %conv, double %conv6, double %mul9)
  %5 = load i64, ptr %pt, align 8
  %conv11 = sitofp i64 %5 to double
  %Y12 = getelementptr inbounds i8, ptr %pt, i64 8
  %6 = load i64, ptr %Y12, align 8
  %conv13 = sitofp i64 %6 to double
  %mul14 = fmul double %conv4, %conv13
  %7 = tail call double @llvm.fmuladd.f64(double %conv, double %conv11, double %mul14)
  %sub15 = fsub double %7, %4
  %mul = fmul double %sub15, %sub15
  %mul17 = fmul double %conv4, %conv4
  %8 = tail call double @llvm.fmuladd.f64(double %conv, double %conv, double %mul17)
  %div = fdiv double %mul, %8
  ret double %div
}